; Function Attrs: nounwind uwtable
define hidden i32 @ir_param(ptr noundef %0, i32 noundef %1, i32 noundef %2, ptr noundef %3, i32 noundef %4) local_unnamed_addr #0 {
  %6 = getelementptr inbounds i8, ptr %0, i64 336
  %7 = load ptr, ptr %6, align 8
  %.not.i = icmp eq ptr %7, null
  br i1 %.not.i, label %8, label %ir_str.exit

8:                                                ; preds = %5
  tail call void @ir_strtab_init(ptr noundef nonnull %6, i32 noundef 64, i32 noundef 4096) #20
  br label %ir_str.exit

ir_str.exit:                                      ; preds = %5, %8
  %9 = tail call i64 @strlen(ptr noundef nonnull dereferenceable(1) %3) #25
  %10 = trunc i64 %9 to i32
  %11 = getelementptr inbounds i8, ptr %0, i64 352
  %12 = load i32, ptr %11, align 8
  %13 = add i32 %12, 1
  %14 = tail call i32 @ir_strtab_lookup(ptr noundef nonnull %6, ptr noundef %3, i32 noundef %10, i32 noundef %13) #20
  %15 = getelementptr inbounds i8, ptr %0, i64 8
  %16 = load i32, ptr %15, align 8
  %17 = getelementptr inbounds i8, ptr %0, i64 12
  %18 = load i32, ptr %17, align 4
  %.not.i.i = icmp slt i32 %16, %18
  %.pre.i = load ptr, ptr %0, align 8
  br i1 %.not.i.i, label %ir_emit.exit, label %19

19:                                               ; preds = %ir_str.exit
  %20 = getelementptr inbounds i8, ptr %0, i64 20
  %21 = load i32, ptr %20, align 4
  %22 = icmp slt i32 %18, 4096
  %23 = shl nsw i32 %18, 1
  %24 = icmp ult i32 %18, 8192
  %25 = add nuw nsw i32 %18, 4096
  %spec.select.i.i.i = select i1 %24, i32 8192, i32 %25
  %.sink.i.i.i = select i1 %22, i32 %23, i32 %spec.select.i.i.i
  store i32 %.sink.i.i.i, ptr %17, align 4
  %26 = sext i32 %21 to i64
  %27 = sub nsw i64 0, %26
  %28 = getelementptr inbounds %struct._ir_insn, ptr %.pre.i, i64 %27
  %29 = add nsw i32 %21, %.sink.i.i.i
  %30 = sext i32 %29 to i64
  %31 = shl nsw i64 %30, 4
  %32 = tail call ptr @_erealloc(ptr noundef %28, i64 noundef %31) #24
  %33 = load i32, ptr %20, align 4
  %34 = sext i32 %33 to i64
  %35 = getelementptr inbounds %struct._ir_insn, ptr %32, i64 %34
  store ptr %35, ptr %0, align 8
  br label %ir_emit.exit

ir_emit.exit:                                     ; preds = %ir_str.exit, %19
  %36 = phi ptr [ %.pre.i, %ir_str.exit ], [ %35, %19 ]
  %37 = shl i32 %1, 8
  %38 = and i32 %37, 16776960
  %39 = or disjoint i32 %38, 63
  %40 = add nsw i32 %16, 1
  store i32 %40, ptr %15, align 8
  %41 = sext i32 %16 to i64
  %42 = getelementptr inbounds %struct._ir_insn, ptr %36, i64 %41
  store i32 %39, ptr %42, align 8
  %43 = getelementptr inbounds i8, ptr %42, i64 4
  store i32 %2, ptr %43, align 4
  %44 = getelementptr inbounds i8, ptr %42, i64 8
  store i32 %14, ptr %44, align 8
  %45 = getelementptr inbounds i8, ptr %42, i64 12
  store i32 %4, ptr %45, align 4
  ret i32 %16
}